target datalayout = "e-m:e-p270:32:32-p271:32:32-p272:64:64-i64:64-i128:128-f80:128-n8:16:32:64-S128"
target triple = "x86_64-pc-linux-gnu"

%struct.AVFilterContext = type { ptr, ptr, ptr, ptr, ptr, i32, ptr, ptr, i32, ptr, ptr, i32, i32, ptr, ptr, ptr, ptr, i32, ptr, i32, i32 }
%struct.LenscorrectionCtx = type { ptr, [4 x i32], [4 x i32], i32, i32, double, double, double, double, i32, [4 x i8], [4 x i32], [4 x ptr], ptr }
%struct.ThreadData = type { ptr, ptr }
%struct.AVChannelLayout = type { i32, i32, %union.anon.1, ptr }
%union.anon.1 = type { i64 }
%struct.AVRational = type { i32, i32 }
%struct.AVFrame = type { [8 x ptr], [8 x i32], ptr, i32, i32, i32, i32, i32, %struct.AVRational, i64, i64, %struct.AVRational, i32, ptr, i32, i32, [8 x ptr], ptr, i32, ptr, i32, i32, i32, i32, i32, i32, i32, i64, ptr, i32, ptr, ptr, i64, i64, i64, i64, ptr, %struct.AVChannelLayout, i64 }

; Function Attrs: nounwind uwtable
define internal i32 @filter8_slice(ptr noundef %0, ptr noundef %1, i32 noundef %2, i32 noundef %3, i32 noundef %4) #1 {
  %6 = alloca ptr, align 8
  %7 = alloca ptr, align 8
  %8 = alloca i32, align 4
  %9 = alloca i32, align 4
  %10 = alloca i32, align 4
  %11 = alloca ptr, align 8
  %12 = alloca ptr, align 8
  %13 = alloca ptr, align 8
  %14 = alloca ptr, align 8
  %15 = alloca ptr, align 8
  %16 = alloca i32, align 4
  %17 = alloca i32, align 4
  %18 = alloca i32, align 4
  %19 = alloca i32, align 4
  %20 = alloca i32, align 4
  %21 = alloca i32, align 4
  %22 = alloca i32, align 4
  %23 = alloca i32, align 4
  %24 = alloca i32, align 4
  %25 = alloca ptr, align 8
  %26 = alloca ptr, align 8
  %27 = alloca i32, align 4
  %28 = alloca i32, align 4
  %29 = alloca i32, align 4
  %30 = alloca ptr, align 8
  %31 = alloca i32, align 4
  %32 = alloca i32, align 4
  %33 = alloca i64, align 8
  %34 = alloca i32, align 4
  %35 = alloca i32, align 4
  %36 = alloca i8, align 1
  store ptr %0, ptr %6, align 8, !tbaa !4
  store ptr %1, ptr %7, align 8, !tbaa !46
  store i32 %2, ptr %8, align 4, !tbaa !24
  store i32 %3, ptr %9, align 4, !tbaa !24
  store i32 %4, ptr %10, align 4, !tbaa !24
  call void @llvm.lifetime.start.p0(i64 8, ptr %11) #7
  %37 = load ptr, ptr %6, align 8, !tbaa !4
  %38 = getelementptr inbounds nuw %struct.AVFilterContext, ptr %37, i32 0, i32 9
  %39 = load ptr, ptr %38, align 8, !tbaa !9
  store ptr %39, ptr %11, align 8, !tbaa !22
  call void @llvm.lifetime.start.p0(i64 8, ptr %12) #7
  %40 = load ptr, ptr %7, align 8, !tbaa !46
  store ptr %40, ptr %12, align 8, !tbaa !70
  call void @llvm.lifetime.start.p0(i64 8, ptr %13) #7
  %41 = load ptr, ptr %12, align 8, !tbaa !70
  %42 = getelementptr inbounds nuw %struct.ThreadData, ptr %41, i32 0, i32 0
  %43 = load ptr, ptr %42, align 8, !tbaa !43
  store ptr %43, ptr %13, align 8, !tbaa !31
  call void @llvm.lifetime.start.p0(i64 8, ptr %14) #7
  %44 = load ptr, ptr %12, align 8, !tbaa !70
  %45 = getelementptr inbounds nuw %struct.ThreadData, ptr %44, i32 0, i32 1
  %46 = load ptr, ptr %45, align 8, !tbaa !45
  store ptr %46, ptr %14, align 8, !tbaa !31
  call void @llvm.lifetime.start.p0(i64 8, ptr %15) #7
  %47 = load ptr, ptr %11, align 8, !tbaa !22
  %48 = getelementptr inbounds nuw %struct.LenscorrectionCtx, ptr %47, i32 0, i32 12
  %49 = load i32, ptr %10, align 4, !tbaa !24
  %50 = sext i32 %49 to i64
  %51 = getelementptr inbounds [4 x ptr], ptr %48, i64 0, i64 %50
  %52 = load ptr, ptr %51, align 8, !tbaa !67
  store ptr %52, ptr %15, align 8, !tbaa !67
  call void @llvm.lifetime.start.p0(i64 4, ptr %16) #7
  %53 = load ptr, ptr %11, align 8, !tbaa !22
  %54 = getelementptr inbounds nuw %struct.LenscorrectionCtx, ptr %53, i32 0, i32 11
  %55 = load i32, ptr %10, align 4, !tbaa !24
  %56 = sext i32 %55 to i64
  %57 = getelementptr inbounds [4 x i32], ptr %54, i64 0, i64 %56
  %58 = load i32, ptr %57, align 4, !tbaa !24
  store i32 %58, ptr %16, align 4, !tbaa !24
  call void @llvm.lifetime.start.p0(i64 4, ptr %17) #7
  %59 = load ptr, ptr %11, align 8, !tbaa !22
  %60 = getelementptr inbounds nuw %struct.LenscorrectionCtx, ptr %59, i32 0, i32 1
  %61 = load i32, ptr %10, align 4, !tbaa !24
  %62 = sext i32 %61 to i64
  %63 = getelementptr inbounds [4 x i32], ptr %60, i64 0, i64 %62
  %64 = load i32, ptr %63, align 4, !tbaa !24
  store i32 %64, ptr %17, align 4, !tbaa !24
  call void @llvm.lifetime.start.p0(i64 4, ptr %18) #7
  %65 = load ptr, ptr %11, align 8, !tbaa !22
  %66 = getelementptr inbounds nuw %struct.LenscorrectionCtx, ptr %65, i32 0, i32 2
  %67 = load i32, ptr %10, align 4, !tbaa !24
  %68 = sext i32 %67 to i64
  %69 = getelementptr inbounds [4 x i32], ptr %66, i64 0, i64 %68
  %70 = load i32, ptr %69, align 4, !tbaa !24
  store i32 %70, ptr %18, align 4, !tbaa !24
  call void @llvm.lifetime.start.p0(i64 4, ptr %19) #7
  %71 = load ptr, ptr %11, align 8, !tbaa !22
  %72 = getelementptr inbounds nuw %struct.LenscorrectionCtx, ptr %71, i32 0, i32 5
  %73 = load double, ptr %72, align 8, !tbaa !72
  %74 = load i32, ptr %17, align 4, !tbaa !24
  %75 = sitofp i32 %74 to double
  %76 = fmul nsz double %73, %75
  %77 = fptosi double %76 to i32
  store i32 %77, ptr %19, align 4, !tbaa !24
  call void @llvm.lifetime.start.p0(i64 4, ptr %20) #7
  %78 = load ptr, ptr %11, align 8, !tbaa !22
  %79 = getelementptr inbounds nuw %struct.LenscorrectionCtx, ptr %78, i32 0, i32 6
  %80 = load double, ptr %79, align 8, !tbaa !73
  %81 = load i32, ptr %18, align 4, !tbaa !24
  %82 = sitofp i32 %81 to double
  %83 = fmul nsz double %80, %82
  %84 = fptosi double %83 to i32
  store i32 %84, ptr %20, align 4, !tbaa !24
  call void @llvm.lifetime.start.p0(i64 4, ptr %21) #7
  %85 = load i32, ptr %18, align 4, !tbaa !24
  %86 = load i32, ptr %8, align 4, !tbaa !24
  %87 = mul nsw i32 %85, %86
  %88 = load i32, ptr %9, align 4, !tbaa !24
  %89 = sdiv i32 %87, %88
  store i32 %89, ptr %21, align 4, !tbaa !24
  call void @llvm.lifetime.start.p0(i64 4, ptr %22) #7
  %90 = load i32, ptr %18, align 4, !tbaa !24
  %91 = load i32, ptr %8, align 4, !tbaa !24
  %92 = add nsw i32 %91, 1
  %93 = mul nsw i32 %90, %92
  %94 = load i32, ptr %9, align 4, !tbaa !24
  %95 = sdiv i32 %93, %94
  store i32 %95, ptr %22, align 4, !tbaa !24
  call void @llvm.lifetime.start.p0(i64 4, ptr %23) #7
  %96 = load ptr, ptr %13, align 8, !tbaa !31
  %97 = getelementptr inbounds nuw %struct.AVFrame, ptr %96, i32 0, i32 1
  %98 = load i32, ptr %10, align 4, !tbaa !24
  %99 = sext i32 %98 to i64
  %100 = getelementptr inbounds [8 x i32], ptr %97, i64 0, i64 %99
  %101 = load i32, ptr %100, align 4, !tbaa !24
  %102 = sext i32 %101 to i64
  %103 = udiv i64 %102, 1
  %104 = trunc i64 %103 to i32
  store i32 %104, ptr %23, align 4, !tbaa !24
  call void @llvm.lifetime.start.p0(i64 4, ptr %24) #7
  %105 = load ptr, ptr %14, align 8, !tbaa !31
  %106 = getelementptr inbounds nuw %struct.AVFrame, ptr %105, i32 0, i32 1
  %107 = load i32, ptr %10, align 4, !tbaa !24
  %108 = sext i32 %107 to i64
  %109 = getelementptr inbounds [8 x i32], ptr %106, i64 0, i64 %108
  %110 = load i32, ptr %109, align 4, !tbaa !24
  %111 = sext i32 %110 to i64
  %112 = udiv i64 %111, 1
  %113 = trunc i64 %112 to i32
  store i32 %113, ptr %24, align 4, !tbaa !24
  call void @llvm.lifetime.start.p0(i64 8, ptr %25) #7
  %114 = load ptr, ptr %13, align 8, !tbaa !31
  %115 = getelementptr inbounds nuw %struct.AVFrame, ptr %114, i32 0, i32 0
  %116 = load i32, ptr %10, align 4, !tbaa !24
  %117 = sext i32 %116 to i64
  %118 = getelementptr inbounds [8 x ptr], ptr %115, i64 0, i64 %117
  %119 = load ptr, ptr %118, align 8, !tbaa !27
  store ptr %119, ptr %25, align 8, !tbaa !27
  call void @llvm.lifetime.start.p0(i64 8, ptr %26) #7
  %120 = load ptr, ptr %14, align 8, !tbaa !31
  %121 = getelementptr inbounds nuw %struct.AVFrame, ptr %120, i32 0, i32 0
  %122 = load i32, ptr %10, align 4, !tbaa !24
  %123 = sext i32 %122 to i64
  %124 = getelementptr inbounds [8 x ptr], ptr %121, i64 0, i64 %123
  %125 = load ptr, ptr %124, align 8, !tbaa !27
  %126 = load i32, ptr %21, align 4, !tbaa !24
  %127 = load i32, ptr %24, align 4, !tbaa !24
  %128 = mul nsw i32 %126, %127
  %129 = sext i32 %128 to i64
  %130 = getelementptr inbounds i8, ptr %125, i64 %129
  store ptr %130, ptr %26, align 8, !tbaa !27
  call void @llvm.lifetime.start.p0(i64 4, ptr %27) #7
  %131 = load i32, ptr %21, align 4, !tbaa !24
  store i32 %131, ptr %27, align 4, !tbaa !24
  br label %132

132:                                              ; preds = %223, %5
  %133 = load i32, ptr %27, align 4, !tbaa !24
  %134 = load i32, ptr %22, align 4, !tbaa !24
  %135 = icmp slt i32 %133, %134
  br i1 %135, label %137, label %136

136:                                              ; preds = %132
  store i32 2, ptr %28, align 4
  call void @llvm.lifetime.end.p0(i64 4, ptr %27) #7
  br label %230

137:                                              ; preds = %132
  call void @llvm.lifetime.start.p0(i64 4, ptr %29) #7
  %138 = load i32, ptr %27, align 4, !tbaa !24
  %139 = load i32, ptr %20, align 4, !tbaa !24
  %140 = sub nsw i32 %138, %139
  store i32 %140, ptr %29, align 4, !tbaa !24
  call void @llvm.lifetime.start.p0(i64 8, ptr %30) #7
  %141 = load ptr, ptr %26, align 8, !tbaa !27
  store ptr %141, ptr %30, align 8, !tbaa !27
  call void @llvm.lifetime.start.p0(i64 4, ptr %31) #7
  store i32 0, ptr %31, align 4, !tbaa !24
  br label %142

142:                                              ; preds = %219, %137
  %143 = load i32, ptr %31, align 4, !tbaa !24
  %144 = load i32, ptr %17, align 4, !tbaa !24
  %145 = icmp slt i32 %143, %144
  br i1 %145, label %147, label %146

146:                                              ; preds = %142
  store i32 5, ptr %28, align 4
  call void @llvm.lifetime.end.p0(i64 4, ptr %31) #7
  br label %222

147:                                              ; preds = %142
  call void @llvm.lifetime.start.p0(i64 4, ptr %32) #7
  %148 = load i32, ptr %31, align 4, !tbaa !24
  %149 = load i32, ptr %19, align 4, !tbaa !24
  %150 = sub nsw i32 %148, %149
  store i32 %150, ptr %32, align 4, !tbaa !24
  call void @llvm.lifetime.start.p0(i64 8, ptr %33) #7
  %151 = load ptr, ptr %15, align 8, !tbaa !67
  %152 = load i32, ptr %31, align 4, !tbaa !24
  %153 = load i32, ptr %27, align 4, !tbaa !24
  %154 = load i32, ptr %17, align 4, !tbaa !24
  %155 = mul nsw i32 %153, %154
  %156 = add nsw i32 %152, %155
  %157 = sext i32 %156 to i64
  %158 = getelementptr inbounds i32, ptr %151, i64 %157
  %159 = load i32, ptr %158, align 4, !tbaa !24
  %160 = sext i32 %159 to i64
  store i64 %160, ptr %33, align 8, !tbaa !74
  call void @llvm.lifetime.start.p0(i64 4, ptr %34) #7
  %161 = load i32, ptr %19, align 4, !tbaa !24
  %162 = sext i32 %161 to i64
  %163 = load i64, ptr %33, align 8, !tbaa !74
  %164 = load i32, ptr %32, align 4, !tbaa !24
  %165 = sext i32 %164 to i64
  %166 = mul nsw i64 %163, %165
  %167 = add nsw i64 %166, 8388608
  %168 = ashr i64 %167, 24
  %169 = add nsw i64 %162, %168
  %170 = trunc i64 %169 to i32
  store i32 %170, ptr %34, align 4, !tbaa !24
  call void @llvm.lifetime.start.p0(i64 4, ptr %35) #7
  %171 = load i32, ptr %20, align 4, !tbaa !24
  %172 = sext i32 %171 to i64
  %173 = load i64, ptr %33, align 8, !tbaa !74
  %174 = load i32, ptr %29, align 4, !tbaa !24
  %175 = sext i32 %174 to i64
  %176 = mul nsw i64 %173, %175
  %177 = add nsw i64 %176, 8388608
  %178 = ashr i64 %177, 24
  %179 = add nsw i64 %172, %178
  %180 = trunc i64 %179 to i32
  store i32 %180, ptr %35, align 4, !tbaa !24
  call void @llvm.lifetime.start.p0(i64 1, ptr %36) #7
  %181 = load i32, ptr %34, align 4, !tbaa !24
  %182 = icmp sge i32 %181, 0
  br i1 %182, label %183, label %194

183:                                              ; preds = %147
  %184 = load i32, ptr %34, align 4, !tbaa !24
  %185 = load i32, ptr %17, align 4, !tbaa !24
  %186 = icmp slt i32 %184, %185
  br i1 %186, label %187, label %194

187:                                              ; preds = %183
  %188 = load i32, ptr %35, align 4, !tbaa !24
  %189 = icmp sge i32 %188, 0
  br i1 %189, label %190, label %194

190:                                              ; preds = %187
  %191 = load i32, ptr %35, align 4, !tbaa !24
  %192 = load i32, ptr %18, align 4, !tbaa !24
  %193 = icmp slt i32 %191, %192
  br label %194

194:                                              ; preds = %190, %187, %183, %147
  %195 = phi i1 [ false, %187 ], [ false, %183 ], [ false, %147 ], [ %193, %190 ]
  %196 = zext i1 %195 to i32
  %197 = trunc i32 %196 to i8
  store i8 %197, ptr %36, align 1, !tbaa !66
  %198 = load i8, ptr %36, align 1, !tbaa !66
  %199 = sext i8 %198 to i32
  %200 = icmp ne i32 %199, 0
  br i1 %200, label %201, label %212

201:                                              ; preds = %194
  %202 = load ptr, ptr %25, align 8, !tbaa !27
  %203 = load i32, ptr %35, align 4, !tbaa !24
  %204 = load i32, ptr %23, align 4, !tbaa !24
  %205 = mul nsw i32 %203, %204
  %206 = load i32, ptr %34, align 4, !tbaa !24
  %207 = add nsw i32 %205, %206
  %208 = sext i32 %207 to i64
  %209 = getelementptr inbounds i8, ptr %202, i64 %208
  %210 = load i8, ptr %209, align 1, !tbaa !66
  %211 = zext i8 %210 to i32
  br label %214

212:                                              ; preds = %194
  %213 = load i32, ptr %16, align 4, !tbaa !24
  br label %214

214:                                              ; preds = %212, %201
  %215 = phi i32 [ %211, %201 ], [ %213, %212 ]
  %216 = trunc i32 %215 to i8
  %217 = load ptr, ptr %30, align 8, !tbaa !27
  %218 = getelementptr inbounds nuw i8, ptr %217, i32 1
  store ptr %218, ptr %30, align 8, !tbaa !27
  store i8 %216, ptr %217, align 1, !tbaa !66
  call void @llvm.lifetime.end.p0(i64 1, ptr %36) #7
  call void @llvm.lifetime.end.p0(i64 4, ptr %35) #7
  call void @llvm.lifetime.end.p0(i64 4, ptr %34) #7
  call void @llvm.lifetime.end.p0(i64 8, ptr %33) #7
  call void @llvm.lifetime.end.p0(i64 4, ptr %32) #7
  br label %219

219:                                              ; preds = %214
  %220 = load i32, ptr %31, align 4, !tbaa !24
  %221 = add nsw i32 %220, 1
  store i32 %221, ptr %31, align 4, !tbaa !24
  br label %142, !llvm.loop !75

222:                                              ; preds = %146
  call void @llvm.lifetime.end.p0(i64 8, ptr %30) #7
  call void @llvm.lifetime.end.p0(i64 4, ptr %29) #7
  br label %223

223:                                              ; preds = %222
  %224 = load i32, ptr %27, align 4, !tbaa !24
  %225 = add nsw i32 %224, 1
  store i32 %225, ptr %27, align 4, !tbaa !24
  %226 = load i32, ptr %24, align 4, !tbaa !24
  %227 = load ptr, ptr %26, align 8, !tbaa !27
  %228 = sext i32 %226 to i64
  %229 = getelementptr inbounds i8, ptr %227, i64 %228
  store ptr %229, ptr %26, align 8, !tbaa !27
  br label %132, !llvm.loop !76

230:                                              ; preds = %136
  store i32 1, ptr %28, align 4
  call void @llvm.lifetime.end.p0(i64 8, ptr %26) #7
  call void @llvm.lifetime.end.p0(i64 8, ptr %25) #7
  call void @llvm.lifetime.end.p0(i64 4, ptr %24) #7
  call void @llvm.lifetime.end.p0(i64 4, ptr %23) #7
  call void @llvm.lifetime.end.p0(i64 4, ptr %22) #7
  call void @llvm.lifetime.end.p0(i64 4, ptr %21) #7
  call void @llvm.lifetime.end.p0(i64 4, ptr %20) #7
  call void @llvm.lifetime.end.p0(i64 4, ptr %19) #7
  call void @llvm.lifetime.end.p0(i64 4, ptr %18) #7
  call void @llvm.lifetime.end.p0(i64 4, ptr %17) #7
  call void @llvm.lifetime.end.p0(i64 4, ptr %16) #7
  call void @llvm.lifetime.end.p0(i64 8, ptr %15) #7
  call void @llvm.lifetime.end.p0(i64 8, ptr %14) #7
  call void @llvm.lifetime.end.p0(i64 8, ptr %13) #7
  call void @llvm.lifetime.end.p0(i64 8, ptr %12) #7
  call void @llvm.lifetime.end.p0(i64 8, ptr %11) #7
  ret i32 0
}