; Function Attrs: nofree norecurse nosync nounwind memory(readwrite, inaccessiblemem: none) uwtable
define internal noundef i32 @filter8_slice(ptr noundef readonly captures(none) %0, ptr noundef readonly captures(none) %1, i32 noundef %2, i32 noundef %3, i32 noundef %4) #5 {
  %6 = getelementptr inbounds nuw i8, ptr %0, i64 72
  %7 = load ptr, ptr %6, align 8, !tbaa !4
  %8 = load ptr, ptr %1, align 8, !tbaa !38
  %9 = getelementptr inbounds nuw i8, ptr %1, i64 8
  %10 = load ptr, ptr %9, align 8, !tbaa !40
  %11 = getelementptr inbounds nuw i8, ptr %7, i64 104
  %12 = sext i32 %4 to i64
  %13 = getelementptr inbounds [4 x ptr], ptr %11, i64 0, i64 %12
  %14 = load ptr, ptr %13, align 8, !tbaa !60
  %15 = getelementptr inbounds nuw i8, ptr %7, i64 8
  %16 = getelementptr inbounds [4 x i32], ptr %15, i64 0, i64 %12
  %17 = load i32, ptr %16, align 4, !tbaa !41
  %18 = getelementptr inbounds nuw i8, ptr %7, i64 24
  %19 = getelementptr inbounds [4 x i32], ptr %18, i64 0, i64 %12
  %20 = load i32, ptr %19, align 4, !tbaa !41
  %21 = getelementptr inbounds nuw i8, ptr %7, i64 48
  %22 = load double, ptr %21, align 8, !tbaa !62
  %23 = sitofp i32 %17 to double
  %24 = fmul nsz double %22, %23
  %25 = fptosi double %24 to i32
  %26 = getelementptr inbounds nuw i8, ptr %7, i64 56
  %27 = load double, ptr %26, align 8, !tbaa !63
  %28 = sitofp i32 %20 to double
  %29 = fmul nsz double %27, %28
  %30 = fptosi double %29 to i32
  %31 = mul nsw i32 %20, %2
  %32 = sdiv i32 %31, %3
  %33 = add nsw i32 %2, 1
  %34 = mul nsw i32 %20, %33
  %35 = sdiv i32 %34, %3
  %36 = getelementptr inbounds nuw i8, ptr %8, i64 64
  %37 = getelementptr inbounds [8 x i32], ptr %36, i64 0, i64 %12
  %38 = load i32, ptr %37, align 4, !tbaa !41
  %39 = getelementptr inbounds nuw i8, ptr %10, i64 64
  %40 = getelementptr inbounds [8 x i32], ptr %39, i64 0, i64 %12
  %41 = load i32, ptr %40, align 4, !tbaa !41
  %42 = sext i32 %41 to i64
  %43 = getelementptr inbounds [8 x ptr], ptr %8, i64 0, i64 %12
  %44 = load ptr, ptr %43, align 8, !tbaa !69
  %45 = icmp slt i32 %32, %35
  br i1 %45, label %.lr.ph81, label %._crit_edge82

.lr.ph81:                                         ; preds = %5
  %46 = getelementptr inbounds nuw i8, ptr %7, i64 88
  %47 = getelementptr inbounds [4 x i32], ptr %46, i64 0, i64 %12
  %48 = load i32, ptr %47, align 4, !tbaa !41
  %49 = icmp sgt i32 %17, 0
  %50 = trunc i32 %48 to i8
  br i1 %49, label %.lr.ph.us.preheader, label %._crit_edge82

.lr.ph.us.preheader:                              ; preds = %.lr.ph81
  %51 = getelementptr inbounds [8 x ptr], ptr %10, i64 0, i64 %12
  %52 = load ptr, ptr %51, align 8, !tbaa !69
  %53 = mul nsw i32 %41, %32
  %54 = sext i32 %53 to i64
  %55 = getelementptr inbounds i8, ptr %52, i64 %54
  %56 = sext i32 %25 to i64
  %57 = sext i32 %32 to i64
  %58 = sext i32 %30 to i64
  %59 = zext nneg i32 %17 to i64
  %wide.trip.count88 = sext i32 %35 to i64
  %wide.trip.count = zext nneg i32 %17 to i64
  br label %.lr.ph.us

.lr.ph.us:                                        ; preds = %.lr.ph.us.preheader, %._crit_edge.us
  %indvars.iv85 = phi i64 [ %57, %.lr.ph.us.preheader ], [ %indvars.iv.next86, %._crit_edge.us ]
  %.079.us = phi ptr [ %55, %.lr.ph.us.preheader ], [ %90, %._crit_edge.us ]
  %60 = sub nsw i64 %indvars.iv85, %58
  %61 = mul nsw i64 %indvars.iv85, %59
  %invariant.gep = getelementptr i32, ptr %14, i64 %61
  br label %62

62:                                               ; preds = %.lr.ph.us, %.critedge.us
  %indvars.iv = phi i64 [ 0, %.lr.ph.us ], [ %indvars.iv.next, %.critedge.us ]
  %.07077.us = phi ptr [ %.079.us, %.lr.ph.us ], [ %89, %.critedge.us ]
  %63 = sub nsw i64 %indvars.iv, %56
  %gep = getelementptr i32, ptr %invariant.gep, i64 %indvars.iv
  %64 = load i32, ptr %gep, align 4, !tbaa !41
  %65 = sext i32 %64 to i64
  %66 = mul nsw i64 %63, %65
  %67 = add nsw i64 %66, 8388608
  %68 = lshr i64 %67, 24
  %69 = trunc i64 %68 to i32
  %70 = add i32 %69, %25
  %71 = mul nsw i64 %60, %65
  %72 = add nsw i64 %71, 8388608
  %73 = lshr i64 %72, 24
  %74 = trunc i64 %73 to i32
  %75 = add i32 %74, %30
  %76 = icmp sgt i32 %70, -1
  br i1 %76, label %77, label %.critedge.us

77:                                               ; preds = %62
  %78 = icmp sge i32 %70, %17
  %79 = icmp slt i32 %75, 0
  %80 = icmp sge i32 %75, %20
  %81 = or i1 %79, %80
  %spec.select.us = select i1 %78, i1 true, i1 %81
  br i1 %spec.select.us, label %.critedge.us, label %82

82:                                               ; preds = %77
  %83 = mul nsw i32 %75, %38
  %84 = add nsw i32 %83, %70
  %85 = sext i32 %84 to i64
  %86 = getelementptr inbounds i8, ptr %44, i64 %85
  %87 = load i8, ptr %86, align 1, !tbaa !59
  br label %.critedge.us

.critedge.us:                                     ; preds = %62, %77, %82
  %88 = phi i8 [ %87, %82 ], [ %50, %77 ], [ %50, %62 ]
  %89 = getelementptr inbounds nuw i8, ptr %.07077.us, i64 1
  store i8 %88, ptr %.07077.us, align 1, !tbaa !59
  %indvars.iv.next = add nuw nsw i64 %indvars.iv, 1
  %exitcond.not = icmp eq i64 %indvars.iv.next, %wide.trip.count
  br i1 %exitcond.not, label %._crit_edge.us, label %62, !llvm.loop !70

._crit_edge.us:                                   ; preds = %.critedge.us
  %indvars.iv.next86 = add nsw i64 %indvars.iv85, 1
  %90 = getelementptr inbounds i8, ptr %.079.us, i64 %42
  %exitcond89.not = icmp eq i64 %indvars.iv.next86, %wide.trip.count88
  br i1 %exitcond89.not, label %._crit_edge82, label %.lr.ph.us, !llvm.loop !71

._crit_edge82:                                    ; preds = %._crit_edge.us, %.lr.ph81, %5
  ret i32 0
}